target datalayout = "e-m:e-p270:32:32-p271:32:32-p272:64:64-i64:64-i128:128-f80:128-n8:16:32:64-S128"
target triple = "x86_64-pc-linux-gnu"

%struct.MRef = type { i64 }
%struct.GCRef = type { i64 }
%struct.GCproto = type { %struct.GCRef, i8, i8, i8, i8, i32, i32, %struct.GCRef, %struct.MRef, %struct.MRef, i32, i32, i32, i8, i8, i16, %struct.GCRef, i32, i32, %struct.MRef, %struct.MRef, %struct.MRef }

; Function Attrs: nounwind uwtable
define hidden i32 @lj_debug_line(ptr noundef %0, i32 noundef %1) #0 {
  %3 = alloca i32, align 4
  %4 = alloca ptr, align 8
  %5 = alloca i32, align 4
  %6 = alloca ptr, align 8
  %7 = alloca i32, align 4
  %8 = alloca i32, align 4
  store ptr %0, ptr %4, align 8, !tbaa !24
  store i32 %1, ptr %5, align 4, !tbaa !9
  call void @llvm.lifetime.start.p0(i64 8, ptr %6) #8
  %9 = load ptr, ptr %4, align 8, !tbaa !24
  %10 = getelementptr inbounds nuw %struct.GCproto, ptr %9, i32 0, i32 19
  %11 = getelementptr inbounds nuw %struct.MRef, ptr %10, i32 0, i32 0
  %12 = load i64, ptr %11, align 8, !tbaa !26
  %13 = inttoptr i64 %12 to ptr
  store ptr %13, ptr %6, align 8, !tbaa !29
  %14 = load i32, ptr %5, align 4, !tbaa !9
  %15 = load ptr, ptr %4, align 8, !tbaa !24
  %16 = getelementptr inbounds nuw %struct.GCproto, ptr %15, i32 0, i32 5
  %17 = load i32, ptr %16, align 4, !tbaa !30
  %18 = icmp ule i32 %14, %17
  br i1 %18, label %19, label %80

19:                                               ; preds = %2
  %20 = load ptr, ptr %6, align 8, !tbaa !29
  %21 = icmp ne ptr %20, null
  br i1 %21, label %22, label %80

22:                                               ; preds = %19
  call void @llvm.lifetime.start.p0(i64 4, ptr %7) #8
  %23 = load ptr, ptr %4, align 8, !tbaa !24
  %24 = getelementptr inbounds nuw %struct.GCproto, ptr %23, i32 0, i32 17
  %25 = load i32, ptr %24, align 8, !tbaa !31
  store i32 %25, ptr %7, align 4, !tbaa !9
  %26 = load i32, ptr %5, align 4, !tbaa !9
  %27 = load ptr, ptr %4, align 8, !tbaa !24
  %28 = getelementptr inbounds nuw %struct.GCproto, ptr %27, i32 0, i32 5
  %29 = load i32, ptr %28, align 4, !tbaa !30
  %30 = icmp eq i32 %26, %29
  br i1 %30, label %31, label %37

31:                                               ; preds = %22
  %32 = load i32, ptr %7, align 4, !tbaa !9
  %33 = load ptr, ptr %4, align 8, !tbaa !24
  %34 = getelementptr inbounds nuw %struct.GCproto, ptr %33, i32 0, i32 18
  %35 = load i32, ptr %34, align 4, !tbaa !32
  %36 = add nsw i32 %32, %35
  store i32 %36, ptr %3, align 4
  store i32 1, ptr %8, align 4
  br label %79

37:                                               ; preds = %22
  %38 = load i32, ptr %5, align 4, !tbaa !9
  %39 = add i32 %38, -1
  store i32 %39, ptr %5, align 4, !tbaa !9
  %40 = icmp eq i32 %38, 0
  br i1 %40, label %41, label %43

41:                                               ; preds = %37
  %42 = load i32, ptr %7, align 4, !tbaa !9
  store i32 %42, ptr %3, align 4
  store i32 1, ptr %8, align 4
  br label %79

43:                                               ; preds = %37
  %44 = load ptr, ptr %4, align 8, !tbaa !24
  %45 = getelementptr inbounds nuw %struct.GCproto, ptr %44, i32 0, i32 18
  %46 = load i32, ptr %45, align 4, !tbaa !32
  %47 = icmp slt i32 %46, 256
  br i1 %47, label %48, label %57

48:                                               ; preds = %43
  %49 = load i32, ptr %7, align 4, !tbaa !9
  %50 = load ptr, ptr %6, align 8, !tbaa !29
  %51 = load i32, ptr %5, align 4, !tbaa !9
  %52 = zext i32 %51 to i64
  %53 = getelementptr inbounds nuw i8, ptr %50, i64 %52
  %54 = load i8, ptr %53, align 1, !tbaa !21
  %55 = zext i8 %54 to i32
  %56 = add nsw i32 %49, %55
  store i32 %56, ptr %3, align 4
  store i32 1, ptr %8, align 4
  br label %79

57:                                               ; preds = %43
  %58 = load ptr, ptr %4, align 8, !tbaa !24
  %59 = getelementptr inbounds nuw %struct.GCproto, ptr %58, i32 0, i32 18
  %60 = load i32, ptr %59, align 4, !tbaa !32
  %61 = icmp slt i32 %60, 65536
  br i1 %61, label %62, label %71

62:                                               ; preds = %57
  %63 = load i32, ptr %7, align 4, !tbaa !9
  %64 = load ptr, ptr %6, align 8, !tbaa !29
  %65 = load i32, ptr %5, align 4, !tbaa !9
  %66 = zext i32 %65 to i64
  %67 = getelementptr inbounds nuw i16, ptr %64, i64 %66
  %68 = load i16, ptr %67, align 2, !tbaa !33
  %69 = zext i16 %68 to i32
  %70 = add nsw i32 %63, %69
  store i32 %70, ptr %3, align 4
  store i32 1, ptr %8, align 4
  br label %79

71:                                               ; preds = %57
  %72 = load i32, ptr %7, align 4, !tbaa !9
  %73 = load ptr, ptr %6, align 8, !tbaa !29
  %74 = load i32, ptr %5, align 4, !tbaa !9
  %75 = zext i32 %74 to i64
  %76 = getelementptr inbounds nuw i32, ptr %73, i64 %75
  %77 = load i32, ptr %76, align 4, !tbaa !9
  %78 = add nsw i32 %72, %77
  store i32 %78, ptr %3, align 4
  store i32 1, ptr %8, align 4
  br label %79

79:                                               ; preds = %71, %62, %48, %41, %31
  call void @llvm.lifetime.end.p0(i64 4, ptr %7) #8
  br label %81

80:                                               ; preds = %19, %2
  store i32 0, ptr %3, align 4
  store i32 1, ptr %8, align 4
  br label %81

81:                                               ; preds = %80, %79
  call void @llvm.lifetime.end.p0(i64 8, ptr %6) #8
  %82 = load i32, ptr %3, align 4
  ret i32 %82
}