; Function Attrs: mustprogress nofree norecurse nosync nounwind willreturn memory(read, inaccessiblemem: none) uwtable
define hidden i32 @lj_debug_line(ptr noundef readonly captures(none) %0, i32 noundef %1) local_unnamed_addr #2 {
  %3 = getelementptr inbounds nuw i8, ptr %0, i64 80
  %4 = load i64, ptr %3, align 8, !tbaa !19
  %5 = inttoptr i64 %4 to ptr
  %6 = getelementptr inbounds nuw i8, ptr %0, i64 12
  %7 = load i32, ptr %6, align 4, !tbaa !22
  %8 = icmp ule i32 %1, %7
  %9 = icmp ne i64 %4, 0
  %or.cond = select i1 %8, i1 %9, i1 false
  br i1 %or.cond, label %10, label %43

10:                                               ; preds = %2
  %11 = getelementptr inbounds nuw i8, ptr %0, i64 72
  %12 = load i32, ptr %11, align 8, !tbaa !23
  %13 = icmp eq i32 %1, %7
  br i1 %13, label %14, label %18

14:                                               ; preds = %10
  %15 = getelementptr inbounds nuw i8, ptr %0, i64 76
  %16 = load i32, ptr %15, align 4, !tbaa !24
  %17 = add nsw i32 %16, %12
  br label %43

18:                                               ; preds = %10
  %19 = add i32 %1, -1
  %20 = icmp eq i32 %1, 0
  br i1 %20, label %43, label %21

21:                                               ; preds = %18
  %22 = getelementptr inbounds nuw i8, ptr %0, i64 76
  %23 = load i32, ptr %22, align 4, !tbaa !24
  %24 = icmp slt i32 %23, 256
  br i1 %24, label %25, label %31

25:                                               ; preds = %21
  %26 = zext i32 %19 to i64
  %27 = getelementptr inbounds nuw i8, ptr %5, i64 %26
  %28 = load i8, ptr %27, align 1, !tbaa !15
  %29 = zext i8 %28 to i32
  %30 = add nsw i32 %12, %29
  br label %43

31:                                               ; preds = %21
  %32 = icmp samesign ult i32 %23, 65536
  %33 = zext i32 %19 to i64
  br i1 %32, label %34, label %39

34:                                               ; preds = %31
  %35 = getelementptr inbounds nuw i16, ptr %5, i64 %33
  %36 = load i16, ptr %35, align 2, !tbaa !25
  %37 = zext i16 %36 to i32
  %38 = add nsw i32 %12, %37
  br label %43

39:                                               ; preds = %31
  %40 = getelementptr inbounds nuw i32, ptr %5, i64 %33
  %41 = load i32, ptr %40, align 4, !tbaa !18
  %42 = add nsw i32 %41, %12
  br label %43

43:                                               ; preds = %2, %14, %25, %34, %39, %18
  %.1 = phi i32 [ %17, %14 ], [ %30, %25 ], [ %38, %34 ], [ %42, %39 ], [ %12, %18 ], [ 0, %2 ]
  ret i32 %.1
}